; Function Attrs: nounwind uwtable
define internal fastcc noalias nonnull ptr @_init_l_Lean_Server_FileWorker_runLakeSetupFile___lambda__1___closed__1() unnamed_addr #0 {
  tail call void @lean_inc_heartbeat() #5
  %1 = tail call noalias ptr @mi_malloc_small(i64 noundef 16) #5
  %2 = icmp eq ptr %1, null
  br i1 %2, label %3, label %lean_alloc_ctor.exit

3:                                                ; preds = %0
  tail call void @lean_internal_panic_out_of_memory() #6
  unreachable

lean_alloc_ctor.exit:                             ; preds = %0
  %4 = getelementptr inbounds nuw i8, ptr %1, i64 4
  %5 = getelementptr inbounds nuw i8, ptr %1, i64 8
  store i64 2, ptr %5, align 8, !tbaa !11
  store i32 1, ptr %1, align 4, !tbaa !8
  store i32 16, ptr %4, align 4
  ret ptr %1
}